; Function Attrs: nounwind uwtable
define noalias noundef ptr @Vec_WrdReadNumsOut(ptr noundef %0, i32 noundef %1) local_unnamed_addr #0 {
  %3 = alloca [1000 x i8], align 16
  call void @llvm.lifetime.start.p0(i64 1000, ptr nonnull %3) #24
  %4 = tail call noalias ptr @fopen(ptr noundef %0, ptr noundef nonnull @.str)
  %5 = icmp eq ptr %4, null
  br i1 %5, label %6, label %8

6:                                                ; preds = %2
  %7 = tail call i32 (ptr, ...) @printf(ptr noundef nonnull dereferenceable(1) @.str.1, ptr noundef %0)
  br label %42

8:                                                ; preds = %2
  %9 = tail call noalias dereferenceable_or_null(16) ptr @malloc(i64 noundef 16) #25
  %10 = getelementptr inbounds nuw i8, ptr %9, i64 4
  store i32 0, ptr %10, align 4, !tbaa !13
  store i32 1000, ptr %9, align 8, !tbaa !16
  %11 = tail call noalias dereferenceable_or_null(4000) ptr @malloc(i64 noundef 4000) #25
  %12 = getelementptr inbounds nuw i8, ptr %9, i64 8
  store ptr %11, ptr %12, align 8, !tbaa !17
  %13 = call ptr @fgets(ptr noundef nonnull %3, i32 noundef 1000, ptr noundef nonnull %4)
  %.not14 = icmp eq ptr %13, null
  br i1 %.not14, label %._crit_edge, label %.lr.ph

.lr.ph:                                           ; preds = %8, %Vec_IntPush.exit
  %14 = phi ptr [ %.pre.i16, %Vec_IntPush.exit ], [ %11, %8 ]
  %15 = call i64 @strtol(ptr noundef nonnull captures(none) %3, ptr noundef null, i32 noundef 10) #24
  %16 = trunc i64 %15 to i32
  %17 = load i32, ptr %10, align 4, !tbaa !13
  %18 = load i32, ptr %9, align 8, !tbaa !16
  %19 = icmp eq i32 %17, %18
  br i1 %19, label %20, label %Vec_IntPush.exit

20:                                               ; preds = %.lr.ph
  %21 = icmp slt i32 %17, 16
  br i1 %21, label %22, label %27

22:                                               ; preds = %20
  %.not9.i.i = icmp eq ptr %14, null
  br i1 %.not9.i.i, label %25, label %23

23:                                               ; preds = %22
  %24 = call dereferenceable_or_null(64) ptr @realloc(ptr noundef nonnull %14, i64 noundef 64) #28
  br label %Vec_IntPush.exit.sink.split

25:                                               ; preds = %22
  %26 = call noalias dereferenceable_or_null(64) ptr @malloc(i64 noundef 64) #25
  br label %Vec_IntPush.exit.sink.split

27:                                               ; preds = %20
  %28 = shl nuw nsw i32 %17, 1
  %.not9.i9.i = icmp eq ptr %14, null
  %29 = zext nneg i32 %28 to i64
  %30 = shl nuw nsw i64 %29, 2
  br i1 %.not9.i9.i, label %33, label %31

31:                                               ; preds = %27
  %32 = call ptr @realloc(ptr noundef nonnull %14, i64 noundef %30) #28
  br label %Vec_IntPush.exit.sink.split

33:                                               ; preds = %27
  %34 = call noalias ptr @malloc(i64 noundef %30) #25
  br label %Vec_IntPush.exit.sink.split

Vec_IntPush.exit.sink.split:                      ; preds = %31, %33, %23, %25
  %.sink17 = phi ptr [ %24, %23 ], [ %26, %25 ], [ %32, %31 ], [ %34, %33 ]
  %.sink = phi i32 [ 16, %23 ], [ 16, %25 ], [ %28, %31 ], [ %28, %33 ]
  store ptr %.sink17, ptr %12, align 8, !tbaa !17
  store i32 %.sink, ptr %9, align 8, !tbaa !16
  br label %Vec_IntPush.exit

Vec_IntPush.exit:                                 ; preds = %Vec_IntPush.exit.sink.split, %.lr.ph
  %.pre.i16 = phi ptr [ %14, %.lr.ph ], [ %.sink17, %Vec_IntPush.exit.sink.split ]
  %35 = add nsw i32 %17, 1
  store i32 %35, ptr %10, align 4, !tbaa !13
  %36 = sext i32 %17 to i64
  %37 = getelementptr inbounds i32, ptr %.pre.i16, i64 %36
  store i32 %16, ptr %37, align 4, !tbaa !12
  %38 = call ptr @fgets(ptr noundef nonnull %3, i32 noundef 1000, ptr noundef nonnull %4)
  %.not = icmp eq ptr %38, null
  br i1 %.not, label %._crit_edge, label %.lr.ph, !llvm.loop !69

._crit_edge:                                      ; preds = %Vec_IntPush.exit, %8
  %39 = call i32 @fclose(ptr noundef nonnull %4)
  %.not13 = icmp eq i32 %1, 0
  br i1 %.not13, label %42, label %40

40:                                               ; preds = %._crit_edge
  %.val = load i32, ptr %10, align 4, !tbaa !13
  %41 = call i32 (ptr, ...) @printf(ptr noundef nonnull dereferenceable(1) @.str.12, i32 noundef %.val, ptr noundef %0)
  br label %42

42:                                               ; preds = %._crit_edge, %40, %6
  %.0 = phi ptr [ null, %6 ], [ %9, %40 ], [ %9, %._crit_edge ]
  call void @llvm.lifetime.end.p0(i64 1000, ptr nonnull %3) #24
  ret ptr %.0
}